target datalayout = "e-m:e-p270:32:32-p271:32:32-p272:64:64-i64:64-i128:128-f80:128-n8:16:32:64-S128"
target triple = "x86_64-pc-linux-gnu"

%"class.icu_77::number::impl::SymbolsWrapper" = type { i32, %union.anon }
%union.anon = type { ptr }

; Function Attrs: mustprogress uwtable
define void @_ZN6icu_776number4impl14SymbolsWrapper10doCopyFromERKS2_(ptr noundef nonnull align 8 dereferenceable(16) %0, ptr noundef nonnull align 8 dereferenceable(16) %1) #1 align 2 personality ptr @__gxx_personality_v0 {
  %3 = alloca ptr, align 8
  %4 = alloca ptr, align 8
  %5 = alloca ptr, align 8
  %6 = alloca i1, align 1
  %7 = alloca ptr, align 8
  %8 = alloca i32, align 4
  %9 = alloca ptr, align 8
  %10 = alloca i1, align 1
  store ptr %0, ptr %3, align 8, !tbaa !23
  store ptr %1, ptr %4, align 8, !tbaa !23
  %11 = load ptr, ptr %3, align 8
  %12 = load ptr, ptr %4, align 8, !tbaa !23
  %13 = getelementptr inbounds nuw %"class.icu_77::number::impl::SymbolsWrapper", ptr %12, i32 0, i32 0
  %14 = load i32, ptr %13, align 8, !tbaa !25
  %15 = getelementptr inbounds nuw %"class.icu_77::number::impl::SymbolsWrapper", ptr %11, i32 0, i32 0
  store i32 %14, ptr %15, align 8, !tbaa !25
  %16 = getelementptr inbounds nuw %"class.icu_77::number::impl::SymbolsWrapper", ptr %11, i32 0, i32 0
  %17 = load i32, ptr %16, align 8, !tbaa !25
  switch i32 %17, label %72 [
    i32 0, label %72
    i32 1, label %18
    i32 2, label %45
  ]

18:                                               ; preds = %2
  %19 = load ptr, ptr %4, align 8, !tbaa !23
  %20 = getelementptr inbounds nuw %"class.icu_77::number::impl::SymbolsWrapper", ptr %19, i32 0, i32 1
  %21 = load ptr, ptr %20, align 8, !tbaa !28
  %22 = icmp ne ptr %21, null
  br i1 %22, label %23, label %42

23:                                               ; preds = %18
  %24 = call noundef ptr @_ZN6icu_777UMemorynwEm(i64 noundef 2584) #10
  %25 = icmp eq ptr %24, null
  store i1 false, ptr %6, align 1
  br i1 %25, label %31, label %26

26:                                               ; preds = %23
  store ptr %24, ptr %5, align 8
  store i1 true, ptr %6, align 1
  %27 = load ptr, ptr %4, align 8, !tbaa !23
  %28 = getelementptr inbounds nuw %"class.icu_77::number::impl::SymbolsWrapper", ptr %27, i32 0, i32 1
  %29 = load ptr, ptr %28, align 8, !tbaa !28
  invoke void @_ZN6icu_7720DecimalFormatSymbolsC1ERKS0_(ptr noundef nonnull align 8 dereferenceable(2579) %24, ptr noundef nonnull align 8 dereferenceable(2579) %29)
          to label %30 unwind label %34

30:                                               ; preds = %26
  br label %31

31:                                               ; preds = %30, %23
  %32 = phi ptr [ %24, %30 ], [ null, %23 ]
  %33 = getelementptr inbounds nuw %"class.icu_77::number::impl::SymbolsWrapper", ptr %11, i32 0, i32 1
  store ptr %32, ptr %33, align 8, !tbaa !28
  br label %44

34:                                               ; preds = %26
  %35 = landingpad { ptr, i32 }
          cleanup
  %36 = extractvalue { ptr, i32 } %35, 0
  store ptr %36, ptr %7, align 8
  %37 = extractvalue { ptr, i32 } %35, 1
  store i32 %37, ptr %8, align 4
  %38 = load i1, ptr %6, align 1
  br i1 %38, label %39, label %41

39:                                               ; preds = %34
  %40 = load ptr, ptr %5, align 8
  call void @_ZN6icu_777UMemorydlEPv(ptr noundef %40) #10
  br label %41

41:                                               ; preds = %39, %34
  br label %73

42:                                               ; preds = %18
  %43 = getelementptr inbounds nuw %"class.icu_77::number::impl::SymbolsWrapper", ptr %11, i32 0, i32 1
  store ptr null, ptr %43, align 8, !tbaa !28
  br label %44

44:                                               ; preds = %42, %31
  br label %72

45:                                               ; preds = %2
  %46 = load ptr, ptr %4, align 8, !tbaa !23
  %47 = getelementptr inbounds nuw %"class.icu_77::number::impl::SymbolsWrapper", ptr %46, i32 0, i32 1
  %48 = load ptr, ptr %47, align 8, !tbaa !28
  %49 = icmp ne ptr %48, null
  br i1 %49, label %50, label %69

50:                                               ; preds = %45
  %51 = call noundef ptr @_ZN6icu_777UMemorynwEm(i64 noundef 88) #10
  %52 = icmp eq ptr %51, null
  store i1 false, ptr %10, align 1
  br i1 %52, label %58, label %53

53:                                               ; preds = %50
  store ptr %51, ptr %9, align 8
  store i1 true, ptr %10, align 1
  %54 = load ptr, ptr %4, align 8, !tbaa !23
  %55 = getelementptr inbounds nuw %"class.icu_77::number::impl::SymbolsWrapper", ptr %54, i32 0, i32 1
  %56 = load ptr, ptr %55, align 8, !tbaa !28
  invoke void @_ZN6icu_7715NumberingSystemC1ERKS0_(ptr noundef nonnull align 8 dereferenceable(86) %51, ptr noundef nonnull align 8 dereferenceable(86) %56)
          to label %57 unwind label %61

57:                                               ; preds = %53
  br label %58

58:                                               ; preds = %57, %50
  %59 = phi ptr [ %51, %57 ], [ null, %50 ]
  %60 = getelementptr inbounds nuw %"class.icu_77::number::impl::SymbolsWrapper", ptr %11, i32 0, i32 1
  store ptr %59, ptr %60, align 8, !tbaa !28
  br label %71

61:                                               ; preds = %53
  %62 = landingpad { ptr, i32 }
          cleanup
  %63 = extractvalue { ptr, i32 } %62, 0
  store ptr %63, ptr %7, align 8
  %64 = extractvalue { ptr, i32 } %62, 1
  store i32 %64, ptr %8, align 4
  %65 = load i1, ptr %10, align 1
  br i1 %65, label %66, label %68

66:                                               ; preds = %61
  %67 = load ptr, ptr %9, align 8
  call void @_ZN6icu_777UMemorydlEPv(ptr noundef %67) #10
  br label %68

68:                                               ; preds = %66, %61
  br label %73

69:                                               ; preds = %45
  %70 = getelementptr inbounds nuw %"class.icu_77::number::impl::SymbolsWrapper", ptr %11, i32 0, i32 1
  store ptr null, ptr %70, align 8, !tbaa !28
  br label %71

71:                                               ; preds = %69, %58
  br label %72

72:                                               ; preds = %2, %71, %44, %2
  ret void

73:                                               ; preds = %68, %41
  %74 = load ptr, ptr %7, align 8
  %75 = load i32, ptr %8, align 4
  %76 = insertvalue { ptr, i32 } poison, ptr %74, 0
  %77 = insertvalue { ptr, i32 } %76, i32 %75, 1
  resume { ptr, i32 } %77
}