; Function Attrs: mustprogress uwtable
define void @_ZN6icu_776number4impl14SymbolsWrapper10doCopyFromERKS2_(ptr noundef nonnull writeonly align 8 captures(none) dereferenceable(16) initializes((0, 4)) %0, ptr noundef nonnull readonly align 8 captures(none) dereferenceable(16) %1) local_unnamed_addr #1 align 2 personality ptr @__gxx_personality_v0 {
  %3 = load i32, ptr %1, align 8, !tbaa !15
  store i32 %3, ptr %0, align 8, !tbaa !15
  switch i32 %3, label %25 [
    i32 2, label %14
    i32 1, label %4
  ]

4:                                                ; preds = %2
  %5 = getelementptr inbounds nuw i8, ptr %1, i64 8
  %6 = load ptr, ptr %5, align 8, !tbaa !18
  %.not = icmp eq ptr %6, null
  br i1 %.not, label %.sink.split, label %7

7:                                                ; preds = %4
  %8 = tail call noundef ptr @_ZN6icu_777UMemorynwEm(i64 noundef 2584) #13
  %9 = icmp eq ptr %8, null
  br i1 %9, label %.sink.split, label %10

10:                                               ; preds = %7
  %11 = load ptr, ptr %5, align 8, !tbaa !18
  invoke void @_ZN6icu_7720DecimalFormatSymbolsC1ERKS0_(ptr noundef nonnull align 8 dereferenceable(2579) %8, ptr noundef nonnull align 8 dereferenceable(2579) %11)
          to label %.sink.split unwind label %12

12:                                               ; preds = %10
  %13 = landingpad { ptr, i32 }
          cleanup
  br label %26

14:                                               ; preds = %2
  %15 = getelementptr inbounds nuw i8, ptr %1, i64 8
  %16 = load ptr, ptr %15, align 8, !tbaa !18
  %.not14 = icmp eq ptr %16, null
  br i1 %.not14, label %.sink.split, label %17

17:                                               ; preds = %14
  %18 = tail call noundef ptr @_ZN6icu_777UMemorynwEm(i64 noundef 88) #13
  %19 = icmp eq ptr %18, null
  br i1 %19, label %.sink.split, label %20

20:                                               ; preds = %17
  %21 = load ptr, ptr %15, align 8, !tbaa !18
  invoke void @_ZN6icu_7715NumberingSystemC1ERKS0_(ptr noundef nonnull align 8 dereferenceable(86) %18, ptr noundef nonnull align 8 dereferenceable(86) %21)
          to label %.sink.split unwind label %22

22:                                               ; preds = %20
  %23 = landingpad { ptr, i32 }
          cleanup
  br label %26

.sink.split:                                      ; preds = %14, %17, %20, %4, %7, %10
  %.sink = phi ptr [ %8, %10 ], [ %8, %7 ], [ null, %4 ], [ %18, %20 ], [ %18, %17 ], [ null, %14 ]
  %24 = getelementptr inbounds nuw i8, ptr %0, i64 8
  store ptr %.sink, ptr %24, align 8, !tbaa !18
  br label %25

25:                                               ; preds = %.sink.split, %2
  ret void

26:                                               ; preds = %22, %12
  %.sink17 = phi ptr [ %18, %22 ], [ %8, %12 ]
  %.pn = phi { ptr, i32 } [ %23, %22 ], [ %13, %12 ]
  tail call void @_ZN6icu_777UMemorydlEPv(ptr noundef nonnull %.sink17) #13
  resume { ptr, i32 } %.pn
}